Certificate:
    Data:
        Version: 3 (0x2)
        Serial Number: 1 (0x1)
    Signature Algorithm: md5WithRSAEncryption
        Issuer: CN=Code TSCompany Root Certificate Authority, ST=Madrid, C=ES/emailAddress=admin@code.tscompany.es, O=TSCompany, OU=Code
        Validity
            Not Before: Oct 23 10:58:07 2012 GMT
            Not After : Oct 21 10:58:07 2022 GMT
        Subject: CN=code.tscompany.es, ST=Madrid, C=ES/emailAddress=admin@code.tscompany.es, O=TSCompany, OU=Code
        Subject Public Key Info:
            Public Key Algorithm: rsaEncryption
                Public-Key: (1024 bit)
                Modulus:
                    00:c7:4e:18:44:46:d8:0a:b7:a1:07:dd:37:7a:f8:
                    a7:1e:5e:2f:e7:df:81:d4:ca:d8:07:8d:c8:e0:6c:
                    2e:d7:b3:d7:12:ee:12:c1:a0:10:26:2d:4f:46:e9:
                    3f:1c:92:db:45:f2:31:16:85:79:6b:3d:2f:c1:63:
                    0c:e6:36:58:1f:91:cc:0a:ec:43:ed:ab:30:0b:71:
                    ca:3a:19:3c:24:9a:12:63:5e:bb:78:4d:2a:77:71:
                    c0:19:a5:28:1c:49:72:d6:de:e5:76:ae:e3:fc:1a:
                    d4:04:a5:f0:fb:e2:11:3f:ac:21:34:b8:3d:ef:c2:
                    d0:ea:68:02:d8:1c:f7:aa:77
                Exponent: 65537 (0x10001)
        X509v3 extensions:
            X509v3 Basic Constraints: 
                CA:FALSE
            Netscape Cert Type: 
                SSL Server
    Signature Algorithm: md5WithRSAEncryption
         0a:9c:f4:59:1a:75:c8:62:20:e7:2d:2e:82:8c:e6:ba:35:e5:
         2a:f0:8b:74:f7:3e:ef:27:98:ef:f8:6a:87:1e:55:2a:1d:0f:
         09:bc:da:33:4c:d2:1e:7a:24:09:12:0a:96:9a:f2:fe:f4:bc:
         f9:d1:ab:cd:63:c7:82:96:33:55:31:2c:62:a0:62:e6:6c:f9:
         72:4d:a4:79:0f:ea:25:a1:02:34:7e:97:f2:a5:69:4b:a0:ab:
         95:4a:66:76:35:a2:cc:72:45:94:4e:c8:52:ce:74:8a:f6:3c:
         6f:b1:27:ac:8e:5f:8c:f1:46:f7:ab:17:7d:9a:ff:0d:c1:b0:
         8d:a5:3e:95:5d:fb:09:01:95:68:d2:e2:0f:8f:56:fd:7a:1e:
         ad:77:19:84:d4:c7:36:24:ae:d1:b6:1e:86:a6:87:3b:86:87:
         88:f7:02:6d:d5:af:49:5f:8f:6d:da:08:93:9a:b9:77:3a:c0:
         90:e3:7c:12:da:22:e5:70:8c:33:91:f0:8f:f1:90:10:a5:a5:
         17:35:b0:24:7f:7f:fa:03:27:05:e9:14:90:f5:d5:7e:a0:c9:
         57:18:9f:93:c0:72:a3:1d:a1:17:a9:f7:19:3e:69:e7:a0:23:
         f8:fb:d1:90:0a:33:f0:f3:9c:4d:bc:9e:da:30:f7:e2:8c:75:
         72:9d:a7:99
-----BEGIN CERTIFICATE-----
MIIDOzCCAiOgAwIBAgIBATANBgkqhkiG9w0BAQQFADCBnTEyMDAGA1UEAxMpQ29k
ZSBUU0NvbXBhbnkgUm9vdCBDZXJ0aWZpY2F0ZSBBdXRob3JpdHkxDzANBgNVBAgT
Bk1hZHJpZDELMAkGA1UEBhMCRVMxJjAkBgkqhkiG9w0BCQEWF2FkbWluQGNvZGUu
dHNjb21wYW55LmVzMRIwEAYDVQQKEwlUU0NvbXBhbnkxDTALBgNVBAsTBENvZGUw
HhcNMTIxMDIzMTA1ODA3WhcNMjIxMDIxMTA1ODA3WjCBhTEaMBgGA1UEAxMRY29k
ZS50c2NvbXBhbnkuZXMxDzANBgNVBAgTBk1hZHJpZDELMAkGA1UEBhMCRVMxJjAk
BgkqhkiG9w0BCQEWF2FkbWluQGNvZGUudHNjb21wYW55LmVzMRIwEAYDVQQKEwlU
U0NvbXBhbnkxDTALBgNVBAsTBENvZGUwgZ8wDQYJKoZIhvcNAQEBBQADgY0AMIGJ
AoGBAMdOGERG2Aq3oQfdN3r4px5eL+ffgdTK2AeNyOBsLtez1xLuEsGgECYtT0bp
PxyS20XyMRaFeWs9L8FjDOY2WB+RzArsQ+2rMAtxyjoZPCSaEmNeu3hNKndxwBml
KBxJctbe5Xau4/wa1ASl8PviET+sITS4Pe/C0OpoAtgc96p3AgMBAAGjIDAeMAkG
A1UdEwQCMAAwEQYJYIZIAYb4QgEBBAQDAgZAMA0GCSqGSIb3DQEBBAUAA4IBAQAK
nPRZGnXIYiDnLS6CjOa6NeUq8It09z7vJ5jv+GqHHlUqHQ8JvNozTNIeeiQJEgqW
mvL+9Lz50avNY8eCljNVMSxioGLmbPlyTaR5D+oloQI0fpfypWlLoKuVSmZ2NaLM
ckWUTshSznSK9jxvsSesjl+M8Ub3qxd9mv8NwbCNpT6VXfsJAZVo0uIPj1b9eh6t
dxmE1Mc2JK7Rth6Gpoc7hoeI9wJt1a9JX49t2giTmrl3OsCQ43wS2iLlcIwzkfCP
8ZAQpaUXNbAkf3/6AycF6RSQ9dV+oMlXGJ+TwHKjHaEXqfcZPmnnoCP4+9GQCjPw
85xNvJ7aMPfijHVynaeZ
-----END CERTIFICATE-----
